-----BEGIN CERTIFICATE-----
MIIDhTCCAm2gAwIBAgIUFKNxdTtkzl9hwuQfVQQpnfGcGyAwDQYJKoZIhvcNAQEL
BQAwUjELMAkGA1UEBhMCVVMxCzAJBgNVBAgMAkNBMRIwEAYDVQQHDAlTYW4gTWF0
ZW8xDjAMBgNVBAoMBVV0c2F2MRIwEAYDVQQDDAlsb2NhbGhvc3QwHhcNMjEwNjAx
MDQyNjE3WhcNNDgxMDE3MDQyNjE3WjBSMQswCQYDVQQGEwJVUzELMAkGA1UECAwC
Q0ExEjAQBgNVBAcMCVNhbiBNYXRlbzEOMAwGA1UECgwFVXRzYXYxEjAQBgNVBAMM
CWxvY2FsaG9zdDCCASIwDQYJKoZIhvcNAQEBBQADggEPADCCAQoCggEBAKnqNtmG
Ypq1XhRRoG4G9BB/JWR9ncj41p6cFrnXp+jmO3pGcdOkMc5LBdIz/GE26yTLUAVi
QSeU+ZJ4gyeeYE7I9BgmUWuXrrh4pP/P89PzFKS3AweMycNAqcJwkaaPKv1yhiDr
PbcaceN6RMl/1aBdc7j2Gcl80Ej74EjXedmLJ2t9SEVAC4l/Oj+MwtsFifvzlKxg
uVsWq/P/enhcXWl041D3SSq9QVkWTQqMKYZj9aF586hN7DsXhPZhjDY8l2wFvv7t
5pPKBs13xAryMYOrF381ac3Od33wVpeZa0xhoqMpcRAR4eGV5TPP71ghfw+ft+Oy
YLCVeFZz9n9R01ECAwEAAaNTMFEwHQYDVR0OBBYEFLXzMNwP1uz764QFE7+szxf5
B629MB8GA1UdIwQYMBaAFLXzMNwP1uz764QFE7+szxf5B629MA8GA1UdEwEB/wQF
MAMBAf8wDQYJKoZIhvcNAQELBQADggEBAJSEjm05euf9lOGZQwOGmAmB1iH6fQcb
oYQxBZalBOW20nPhurTPV/dDoIAt8yNnBvv0Etc2IjCxvl8QSc8H2zgdoV6HXBRa
GNGAmOb2pDvgzmN7ryf6RXgKMCqgKa71qWwUjvncyTTFl3hed/HcBxekx3q78O99
9luayFHcgbKX62xIqP+DgsCR+tte5lb6AwEdcevp0PMnvtv8ERehluEcS3pJX7jU
nyIGOV8KU3kCiUhBM471x/LUKoHmsHqjK3/QF7JezNmijpGpR1WmgyIJzQ997LQU
SyDcIi1hrmWjwPKwPLx2q/zXhME/ssArgs237738T+nwk3pa0l3vUwM=
-----END CERTIFICATE-----

Output of openssl x509 -in tests/certs/fullchain.pem -text -noout

Certificate:
    Data:
        Version: 3 (0x2)
        Serial Number:
            14:a3:71:75:3b:64:ce:5f:61:c2:e4:1f:55:04:29:9d:f1:9c:1b:20
        Signature Algorithm: sha256WithRSAEncryption
        Issuer: C = US, ST = CA, L = San Mateo, O = Utsav, CN = localhost
        Validity
            Not Before: Jun  1 04:26:17 2021 GMT
            Not After : Oct 17 04:26:17 2048 GMT
        Subject: C = US, ST = CA, L = San Mateo, O = Utsav, CN = localhost
        Subject Public Key Info:
            Public Key Algorithm: rsaEncryption
                RSA Public-Key: (2048 bit)
                Modulus:
                    00:a9:ea:36:d9:86:62:9a:b5:5e:14:51:a0:6e:06:
                    f4:10:7f:25:64:7d:9d:c8:f8:d6:9e:9c:16:b9:d7:
                    a7:e8:e6:3b:7a:46:71:d3:a4:31:ce:4b:05:d2:33:
                    fc:61:36:eb:24:cb:50:05:62:41:27:94:f9:92:78:
                    83:27:9e:60:4e:c8:f4:18:26:51:6b:97:ae:b8:78:
                    a4:ff:cf:f3:d3:f3:14:a4:b7:03:07:8c:c9:c3:40:
                    a9:c2:70:91:a6:8f:2a:fd:72:86:20:eb:3d:b7:1a:
                    71:e3:7a:44:c9:7f:d5:a0:5d:73:b8:f6:19:c9:7c:
                    d0:48:fb:e0:48:d7:79:d9:8b:27:6b:7d:48:45:40:
                    0b:89:7f:3a:3f:8c:c2:db:05:89:fb:f3:94:ac:60:
                    b9:5b:16:ab:f3:ff:7a:78:5c:5d:69:74:e3:50:f7:
                    49:2a:bd:41:59:16:4d:0a:8c:29:86:63:f5:a1:79:
                    f3:a8:4d:ec:3b:17:84:f6:61:8c:36:3c:97:6c:05:
                    be:fe:ed:e6:93:ca:06:cd:77:c4:0a:f2:31:83:ab:
                    17:7f:35:69:cd:ce:77:7d:f0:56:97:99:6b:4c:61:
                    a2:a3:29:71:10:11:e1:e1:95:e5:33:cf:ef:58:21:
                    7f:0f:9f:b7:e3:b2:60:b0:95:78:56:73:f6:7f:51:
                    d3:51
                Exponent: 65537 (0x10001)
        X509v3 extensions:
            X509v3 Subject Key Identifier: 
                B5:F3:30:DC:0F:D6:EC:FB:EB:84:05:13:BF:AC:CF:17:F9:07:AD:BD
            X509v3 Authority Key Identifier: 
                keyid:B5:F3:30:DC:0F:D6:EC:FB:EB:84:05:13:BF:AC:CF:17:F9:07:AD:BD

            X509v3 Basic Constraints: critical
                CA:TRUE
    Signature Algorithm: sha256WithRSAEncryption
         94:84:8e:6d:39:7a:e7:fd:94:e1:99:43:03:86:98:09:81:d6:
         21:fa:7d:07:1b:a1:84:31:05:96:a5:04:e5:b6:d2:73:e1:ba:
         b4:cf:57:f7:43:a0:80:2d:f3:23:67:06:fb:f4:12:d7:36:22:
         30:b1:be:5f:10:49:cf:07:db:38:1d:a1:5e:87:5c:14:5a:18:
         d1:80:98:e6:f6:a4:3b:e0:ce:63:7b:af:27:fa:45:78:0a:30:
         2a:a0:29:ae:f5:a9:6c:14:8e:f9:dc:c9:34:c5:97:78:5e:77:
         f1:dc:07:17:a4:c7:7a:bb:f0:ef:7d:f6:5b:9a:c8:51:dc:81:
         b2:97:eb:6c:48:a8:ff:83:82:c0:91:fa:db:5e:e6:56:fa:03:
         01:1d:71:eb:e9:d0:f3:27:be:db:fc:11:17:a1:96:e1:1c:4b:
         7a:49:5f:b8:d4:9f:22:06:39:5f:0a:53:79:02:89:48:41:33:
         8e:f5:c7:f2:d4:2a:81:e6:b0:7a:a3:2b:7f:d0:17:b2:5e:cc:
         d9:a2:8e:91:a9:47:55:a6:83:22:09:cd:0f:7d:ec:b4:14:4b:
         20:dc:22:2d:61:ae:65:a3:c0:f2:b0:3c:bc:76:ab:fc:d7:84:
         c1:3f:b2:c0:2b:82:cd:b7:ef:bd:fc:4f:e9:f0:93:7a:5a:d2:
         5d:ef:53:03
